; Function Attrs: nounwind sspstrong uwtable
define internal noundef i64 @path_initialize(i64 noundef returned %0, i64 noundef %1) #0 {
  %3 = alloca i64, align 8
  call void @llvm.lifetime.start.p0(i64 8, ptr nonnull %3) #7
  %4 = icmp eq i64 %1, 0
  %5 = and i64 %1, 7
  %6 = icmp ne i64 %5, 0
  %7 = or i1 %4, %6
  br i1 %7, label %rbimpl_RB_TYPE_P_fastpath.exit.thread, label %rbimpl_RB_TYPE_P_fastpath.exit

rbimpl_RB_TYPE_P_fastpath.exit:                   ; preds = %2
  %8 = inttoptr i64 %1 to ptr
  %9 = load i64, ptr %8, align 8, !tbaa !10
  %10 = and i64 %9, 31
  %11 = icmp eq i64 %10, 5
  br i1 %11, label %12, label %rbimpl_RB_TYPE_P_fastpath.exit.thread

12:                                               ; preds = %rbimpl_RB_TYPE_P_fastpath.exit
  store i64 %1, ptr %3, align 8, !tbaa !6
  br label %17

rbimpl_RB_TYPE_P_fastpath.exit.thread:            ; preds = %2, %rbimpl_RB_TYPE_P_fastpath.exit
  %13 = load i64, ptr @id_to_path, align 8, !tbaa !6
  %14 = tail call i64 @rb_check_funcall(i64 noundef %1, i64 noundef %13, i32 noundef 0, ptr noundef null) #7
  %15 = icmp eq i64 %14, 36
  %spec.select = select i1 %15, i64 %1, i64 %14
  store i64 %spec.select, ptr %3, align 8, !tbaa !6
  %16 = call i64 @rb_string_value(ptr noundef nonnull %3) #7
  %.pre = load i64, ptr %3, align 8, !tbaa !6
  %.phi.trans.insert = inttoptr i64 %.pre to ptr
  %.pre7 = load i64, ptr %.phi.trans.insert, align 8, !tbaa !10, !noalias !12
  br label %17

17:                                               ; preds = %rbimpl_RB_TYPE_P_fastpath.exit.thread, %12
  %.pre-phi = phi ptr [ %.phi.trans.insert, %rbimpl_RB_TYPE_P_fastpath.exit.thread ], [ %8, %12 ]
  %18 = phi i64 [ %.pre7, %rbimpl_RB_TYPE_P_fastpath.exit.thread ], [ %9, %12 ]
  %19 = phi i64 [ %.pre, %rbimpl_RB_TYPE_P_fastpath.exit.thread ], [ %1, %12 ]
  %20 = and i64 %18, 8192
  %.not.i.i = icmp eq i64 %20, 0
  %21 = getelementptr inbounds nuw i8, ptr %.pre-phi, i64 24
  br i1 %.not.i.i, label %RSTRING_PTR.exit, label %22

22:                                               ; preds = %17
  %.sroa.2.0.copyload.i = load ptr, ptr %21, align 8
  br label %RSTRING_PTR.exit

RSTRING_PTR.exit:                                 ; preds = %17, %22
  %.sroa.2.0.i = phi ptr [ %.sroa.2.0.copyload.i, %22 ], [ %21, %17 ]
  %23 = getelementptr inbounds nuw i8, ptr %.pre-phi, i64 16
  %24 = load i64, ptr %23, align 8, !tbaa !15
  %25 = call ptr @memchr(ptr noundef %.sroa.2.0.i, i32 noundef 0, i64 noundef %24) #8
  %.not = icmp eq ptr %25, null
  br i1 %.not, label %28, label %26

26:                                               ; preds = %RSTRING_PTR.exit
  %27 = load i64, ptr @rb_eArgError, align 8, !tbaa !6
  call void (i64, ptr, ...) @rb_raise(i64 noundef %27, ptr noundef nonnull @.str.90) #9
  unreachable

28:                                               ; preds = %RSTRING_PTR.exit
  %29 = call i64 @rb_obj_dup(i64 noundef %19) #7
  store i64 %29, ptr %3, align 8, !tbaa !6
  %30 = load i64, ptr @id_at_path, align 8, !tbaa !6
  %31 = call i64 @rb_ivar_set(i64 noundef %0, i64 noundef %30, i64 noundef %29) #7
  call void @llvm.lifetime.end.p0(i64 8, ptr nonnull %3) #7
  ret i64 %0
}